target datalayout = "e-m:e-p270:32:32-p271:32:32-p272:64:64-i64:64-i128:128-f80:128-n8:16:32:64-S128"
target triple = "x86_64-pc-linux-gnu"

%struct.pg_conn = type { ptr, ptr, ptr, ptr, ptr, ptr, ptr, ptr, ptr, ptr, ptr, ptr, ptr, ptr, ptr, ptr, ptr, ptr, ptr, ptr, ptr, ptr, ptr, ptr, ptr, ptr, ptr, ptr, ptr, ptr, ptr, ptr, ptr, ptr, ptr, ptr, ptr, ptr, ptr, ptr, ptr, ptr, ptr, i8, ptr, i32, %struct.PGNoticeHooks, ptr, i32, i32, i32, i32, i32, [6 x i8], i8, i8, i32, i8, i8, i32, i8, i32, ptr, ptr, i32, i32, ptr, ptr, ptr, ptr, ptr, i32, %struct.SockAddr, %struct.SockAddr, i32, i32, i8, i8, i8, i8, i8, i8, ptr, i8, i32, [1 x ptr], i8, i8, ptr, ptr, i32, i32, i32, i8, i8, i32, i32, ptr, i8, i64, ptr, i64, ptr, i32, i32, ptr, i32, i8, i32, i32, i32, i32, ptr, %struct.pg_prng_state, ptr, i32, i32, i32, i32, ptr, i32, i32, i32, i32, ptr, i32, ptr, i8, ptr, ptr, ptr, i32, i8, i8, i8, i8, i8, i8, i8, i8, %struct.PQExpBufferData, i32, %struct.PQExpBufferData }
%struct.PGNoticeHooks = type { ptr, ptr, ptr, ptr }
%struct.SockAddr = type { %struct.sockaddr_storage, i32 }
%struct.sockaddr_storage = type { i16, [118 x i8], i64 }
%struct.pg_prng_state = type { i64, i64 }
%struct.PQExpBufferData = type { ptr, i64, i64 }
%struct.pg_result = type { i32, i32, ptr, ptr, i32, i32, ptr, i32, [64 x i8], i32, %struct.PGNoticeHooks, ptr, i32, i32, ptr, ptr, ptr, [1 x i8], ptr, i32, i32, i64 }

@.str.54 = private unnamed_addr constant [5 x i8] c"auto\00", align 1
@PQsetClientEncoding.query = internal constant [28 x i8] c"set client_encoding to '%s'\00", align 16

; Function Attrs: nounwind uwtable
define i32 @PQsetClientEncoding(ptr noundef %0, ptr noundef %1) #0 {
  %3 = alloca i32, align 4
  %4 = alloca ptr, align 8
  %5 = alloca ptr, align 8
  %6 = alloca [128 x i8], align 16
  %7 = alloca ptr, align 8
  %8 = alloca i32, align 4
  %9 = alloca i32, align 4
  store ptr %0, ptr %4, align 8
  store ptr %1, ptr %5, align 8
  call void @llvm.lifetime.start.p0(i64 128, ptr %6) #12
  call void @llvm.lifetime.start.p0(i64 8, ptr %7) #12
  call void @llvm.lifetime.start.p0(i64 4, ptr %8) #12
  %10 = load ptr, ptr %4, align 8
  %11 = icmp ne ptr %10, null
  br i1 %11, label %12, label %17

12:                                               ; preds = %2
  %13 = load ptr, ptr %4, align 8
  %14 = getelementptr inbounds nuw %struct.pg_conn, ptr %13, i32 0, i32 50
  %15 = load i32, ptr %14, align 8
  %16 = icmp ne i32 %15, 0
  br i1 %16, label %17, label %18

17:                                               ; preds = %12, %2
  store i32 -1, ptr %3, align 4
  store i32 1, ptr %9, align 4
  br label %55

18:                                               ; preds = %12
  %19 = load ptr, ptr %5, align 8
  %20 = icmp ne ptr %19, null
  br i1 %20, label %22, label %21

21:                                               ; preds = %18
  store i32 -1, ptr %3, align 4
  store i32 1, ptr %9, align 4
  br label %55

22:                                               ; preds = %18
  %23 = load ptr, ptr %5, align 8
  %24 = call i32 @strcmp(ptr noundef %23, ptr noundef @.str.54) #13
  %25 = icmp eq i32 %24, 0
  br i1 %25, label %26, label %29

26:                                               ; preds = %22
  %27 = call i32 @pg_get_encoding_from_locale(ptr noundef null, i1 noundef zeroext true)
  %28 = call ptr @pg_encoding_to_char(i32 noundef %27)
  store ptr %28, ptr %5, align 8
  br label %29

29:                                               ; preds = %26, %22
  %30 = load ptr, ptr %5, align 8
  %31 = call i64 @strlen(ptr noundef %30) #13
  %32 = add i64 28, %31
  %33 = icmp ult i64 128, %32
  br i1 %33, label %34, label %35

34:                                               ; preds = %29
  store i32 -1, ptr %3, align 4
  store i32 1, ptr %9, align 4
  br label %55

35:                                               ; preds = %29
  %36 = getelementptr inbounds [128 x i8], ptr %6, i64 0, i64 0
  %37 = load ptr, ptr %5, align 8
  %38 = call i32 (ptr, ptr, ...) @pg_sprintf(ptr noundef %36, ptr noundef @PQsetClientEncoding.query, ptr noundef %37)
  %39 = load ptr, ptr %4, align 8
  %40 = getelementptr inbounds [128 x i8], ptr %6, i64 0, i64 0
  %41 = call ptr @PQexec(ptr noundef %39, ptr noundef %40)
  store ptr %41, ptr %7, align 8
  %42 = load ptr, ptr %7, align 8
  %43 = icmp eq ptr %42, null
  br i1 %43, label %44, label %45

44:                                               ; preds = %35
  store i32 -1, ptr %3, align 4
  store i32 1, ptr %9, align 4
  br label %55

45:                                               ; preds = %35
  %46 = load ptr, ptr %7, align 8
  %47 = getelementptr inbounds nuw %struct.pg_result, ptr %46, i32 0, i32 7
  %48 = load i32, ptr %47, align 8
  %49 = icmp ne i32 %48, 1
  br i1 %49, label %50, label %51

50:                                               ; preds = %45
  store i32 -1, ptr %8, align 4
  br label %52

51:                                               ; preds = %45
  store i32 0, ptr %8, align 4
  br label %52

52:                                               ; preds = %51, %50
  %53 = load ptr, ptr %7, align 8
  call void @PQclear(ptr noundef %53)
  %54 = load i32, ptr %8, align 4
  store i32 %54, ptr %3, align 4
  store i32 1, ptr %9, align 4
  br label %55

55:                                               ; preds = %52, %44, %34, %21, %17
  call void @llvm.lifetime.end.p0(i64 4, ptr %8) #12
  call void @llvm.lifetime.end.p0(i64 8, ptr %7) #12
  call void @llvm.lifetime.end.p0(i64 128, ptr %6) #12
  %56 = load i32, ptr %3, align 4
  ret i32 %56
}