; Function Attrs: nounwind uwtable
define range(i32 -1, 1) i32 @PQsetClientEncoding(ptr noundef %0, ptr noundef %1) local_unnamed_addr #0 {
  %3 = alloca [128 x i8], align 16
  call void @llvm.lifetime.start.p0(i64 128, ptr nonnull %3) #25
  %.not = icmp eq ptr %0, null
  br i1 %.not, label %24, label %4

4:                                                ; preds = %2
  %5 = getelementptr inbounds nuw i8, ptr %0, i64 416
  %6 = load i32, ptr %5, align 8
  %.not16 = icmp ne i32 %6, 0
  %.not17 = icmp eq ptr %1, null
  %or.cond = or i1 %.not17, %.not16
  br i1 %or.cond, label %24, label %7

7:                                                ; preds = %4
  %8 = tail call i32 @strcmp(ptr noundef nonnull dereferenceable(1) %1, ptr noundef nonnull dereferenceable(5) @.str.54) #26
  %9 = icmp eq i32 %8, 0
  br i1 %9, label %10, label %13

10:                                               ; preds = %7
  %11 = tail call i32 @pg_get_encoding_from_locale(ptr noundef null, i1 noundef zeroext true) #25
  %12 = tail call ptr @pg_encoding_to_char(i32 noundef %11) #25
  br label %13

13:                                               ; preds = %10, %7
  %.012 = phi ptr [ %12, %10 ], [ %1, %7 ]
  %14 = tail call i64 @strlen(ptr noundef nonnull dereferenceable(1) %.012) #26
  %15 = add i64 %14, -101
  %16 = icmp ult i64 %15, -129
  br i1 %16, label %24, label %17

17:                                               ; preds = %13
  %18 = call i32 (ptr, ptr, ...) @pg_sprintf(ptr noundef nonnull %3, ptr noundef nonnull @PQsetClientEncoding.query, ptr noundef nonnull %.012) #25
  %19 = call ptr @PQexec(ptr noundef nonnull %0, ptr noundef nonnull %3) #25
  %20 = icmp eq ptr %19, null
  br i1 %20, label %24, label %21

21:                                               ; preds = %17
  %22 = getelementptr inbounds nuw i8, ptr %19, i64 40
  %23 = load i32, ptr %22, align 8
  %.not18 = icmp ne i32 %23, 1
  %. = sext i1 %.not18 to i32
  call void @PQclear(ptr noundef nonnull %19) #25
  br label %24

24:                                               ; preds = %17, %13, %2, %4, %21
  %.011 = phi i32 [ %., %21 ], [ -1, %4 ], [ -1, %2 ], [ -1, %13 ], [ -1, %17 ]
  call void @llvm.lifetime.end.p0(i64 128, ptr nonnull %3) #25
  ret i32 %.011
}